target datalayout = "e-m:e-p270:32:32-p271:32:32-p272:64:64-i64:64-i128:128-f80:128-n8:16:32:64-S128"
target triple = "x86_64-pc-linux-gnu"

%struct.FreePageManager = type { %union.RelptrFreePageManager, %union.RelptrFreePageBtree, %union.RelptrFreePageSpanLeader, i32, i32, i64, i64, i64, i8, [129 x %union.RelptrFreePageSpanLeader] }
%union.RelptrFreePageManager = type { ptr }
%union.RelptrFreePageBtree = type { ptr }
%union.RelptrFreePageSpanLeader = type { ptr }
%struct.FreePageSpanLeader = type { i32, i64, %union.RelptrFreePageSpanLeader, %union.RelptrFreePageSpanLeader }

; Function Attrs: inlinehint nounwind uwtable
define internal i64 @relptr_store_eval(ptr noundef %0, ptr noundef %1) #2 {
  %3 = alloca i64, align 8
  %4 = alloca ptr, align 8
  %5 = alloca ptr, align 8
  store ptr %0, ptr %4, align 8
  store ptr %1, ptr %5, align 8
  %6 = load ptr, ptr %5, align 8
  %7 = icmp eq ptr %6, null
  br i1 %7, label %8, label %9

8:                                                ; preds = %2
  store i64 0, ptr %3, align 8
  br label %16

9:                                                ; preds = %2
  %10 = load ptr, ptr %5, align 8
  %11 = load ptr, ptr %4, align 8
  %12 = ptrtoint ptr %10 to i64
  %13 = ptrtoint ptr %11 to i64
  %14 = sub i64 %12, %13
  %15 = add i64 %14, 1
  store i64 %15, ptr %3, align 8
  br label %16

16:                                               ; preds = %9, %8
  %17 = load i64, ptr %3, align 8
  ret i64 %17
}

; Function Attrs: nounwind uwtable
define internal void @FreePagePushSpanLeader(ptr noundef %0, i64 noundef %1, i64 noundef %2) #0 {
  %4 = alloca ptr, align 8
  %5 = alloca i64, align 8
  %6 = alloca i64, align 8
  %7 = alloca ptr, align 8
  %8 = alloca i64, align 8
  %9 = alloca ptr, align 8
  %10 = alloca i32, align 4
  %11 = alloca ptr, align 8
  %12 = alloca i32, align 4
  %13 = alloca i32, align 4
  %14 = alloca i32, align 4
  %15 = alloca i32, align 4
  %16 = alloca i32, align 4
  %17 = alloca i32, align 4
  %18 = alloca i32, align 4
  %19 = alloca i32, align 4
  %20 = alloca i32, align 4
  store ptr %0, ptr %4, align 8
  store i64 %1, ptr %5, align 8
  store i64 %2, ptr %6, align 8
  call void @llvm.lifetime.start.p0(i64 8, ptr %7) #6
  %21 = load ptr, ptr %4, align 8
  %22 = load ptr, ptr %4, align 8
  %23 = getelementptr inbounds nuw %struct.FreePageManager, ptr %22, i32 0, i32 0
  %24 = load i64, ptr %23, align 8
  %25 = sub i64 %24, 1
  %26 = sub i64 0, %25
  %27 = getelementptr inbounds i8, ptr %21, i64 %26
  store ptr %27, ptr %7, align 8
  call void @llvm.lifetime.start.p0(i64 8, ptr %8) #6
  %28 = load i64, ptr %6, align 8
  %29 = icmp ult i64 %28, 129
  br i1 %29, label %30, label %32

30:                                               ; preds = %3
  %31 = load i64, ptr %6, align 8
  br label %33

32:                                               ; preds = %3
  br label %33

33:                                               ; preds = %32, %30
  %34 = phi i64 [ %31, %30 ], [ 129, %32 ]
  %35 = sub i64 %34, 1
  store i64 %35, ptr %8, align 8
  call void @llvm.lifetime.start.p0(i64 8, ptr %9) #6
  br label %36

36:                                               ; preds = %33
  br label %37

37:                                               ; preds = %36
  br label %38

38:                                               ; preds = %37
  store i32 1, ptr %10, align 4
  %39 = load ptr, ptr %4, align 8
  %40 = getelementptr inbounds nuw %struct.FreePageManager, ptr %39, i32 0, i32 9
  %41 = load i64, ptr %8, align 8
  %42 = getelementptr inbounds nuw [129 x %union.RelptrFreePageSpanLeader], ptr %40, i64 0, i64 %41
  %43 = load i64, ptr %42, align 8
  %44 = icmp eq i64 %43, 0
  br i1 %44, label %45, label %46

45:                                               ; preds = %38
  br label %55

46:                                               ; preds = %38
  %47 = load ptr, ptr %7, align 8
  %48 = load ptr, ptr %4, align 8
  %49 = getelementptr inbounds nuw %struct.FreePageManager, ptr %48, i32 0, i32 9
  %50 = load i64, ptr %8, align 8
  %51 = getelementptr inbounds nuw [129 x %union.RelptrFreePageSpanLeader], ptr %49, i64 0, i64 %50
  %52 = load i64, ptr %51, align 8
  %53 = getelementptr inbounds nuw i8, ptr %47, i64 %52
  %54 = getelementptr inbounds i8, ptr %53, i64 -1
  br label %55

55:                                               ; preds = %46, %45
  %56 = phi ptr [ null, %45 ], [ %54, %46 ]
  store ptr %56, ptr %9, align 8
  call void @llvm.lifetime.start.p0(i64 8, ptr %11) #6
  br label %57

57:                                               ; preds = %55
  br label %58

58:                                               ; preds = %57
  br label %59

59:                                               ; preds = %58
  store i32 1, ptr %12, align 4
  %60 = load ptr, ptr %7, align 8
  %61 = load i64, ptr %5, align 8
  %62 = mul i64 4096, %61
  %63 = getelementptr inbounds nuw i8, ptr %60, i64 %62
  store ptr %63, ptr %11, align 8
  %64 = load ptr, ptr %11, align 8
  %65 = getelementptr inbounds nuw %struct.FreePageSpanLeader, ptr %64, i32 0, i32 0
  store i32 -364896016, ptr %65, align 8
  %66 = load i64, ptr %6, align 8
  %67 = load ptr, ptr %11, align 8
  %68 = getelementptr inbounds nuw %struct.FreePageSpanLeader, ptr %67, i32 0, i32 1
  store i64 %66, ptr %68, align 8
  br label %69

69:                                               ; preds = %59
  br label %70

70:                                               ; preds = %69
  br label %71

71:                                               ; preds = %70
  store i32 1, ptr %13, align 4
  br label %72

72:                                               ; preds = %71
  br label %73

73:                                               ; preds = %72
  br label %74

74:                                               ; preds = %73
  store i32 1, ptr %14, align 4
  %75 = load ptr, ptr %7, align 8
  %76 = load ptr, ptr %9, align 8
  %77 = call i64 @relptr_store_eval(ptr noundef %75, ptr noundef %76)
  %78 = load ptr, ptr %11, align 8
  %79 = getelementptr inbounds nuw %struct.FreePageSpanLeader, ptr %78, i32 0, i32 3
  store i64 %77, ptr %79, align 8
  br label %80

80:                                               ; preds = %74
  br label %81

81:                                               ; preds = %80
  br label %82

82:                                               ; preds = %81
  store i32 1, ptr %15, align 4
  br label %83

83:                                               ; preds = %82
  br label %84

84:                                               ; preds = %83
  br label %85

85:                                               ; preds = %84
  store i32 1, ptr %16, align 4
  %86 = load ptr, ptr %7, align 8
  %87 = call i64 @relptr_store_eval(ptr noundef %86, ptr noundef null)
  %88 = load ptr, ptr %11, align 8
  %89 = getelementptr inbounds nuw %struct.FreePageSpanLeader, ptr %88, i32 0, i32 2
  store i64 %87, ptr %89, align 8
  %90 = load ptr, ptr %9, align 8
  %91 = icmp ne ptr %90, null
  br i1 %91, label %92, label %104

92:                                               ; preds = %85
  br label %93

93:                                               ; preds = %92
  br label %94

94:                                               ; preds = %93
  br label %95

95:                                               ; preds = %94
  store i32 1, ptr %17, align 4
  br label %96

96:                                               ; preds = %95
  br label %97

97:                                               ; preds = %96
  br label %98

98:                                               ; preds = %97
  store i32 1, ptr %18, align 4
  %99 = load ptr, ptr %7, align 8
  %100 = load ptr, ptr %11, align 8
  %101 = call i64 @relptr_store_eval(ptr noundef %99, ptr noundef %100)
  %102 = load ptr, ptr %9, align 8
  %103 = getelementptr inbounds nuw %struct.FreePageSpanLeader, ptr %102, i32 0, i32 2
  store i64 %101, ptr %103, align 8
  br label %104

104:                                              ; preds = %98, %85
  br label %105

105:                                              ; preds = %104
  br label %106

106:                                              ; preds = %105
  br label %107

107:                                              ; preds = %106
  store i32 1, ptr %19, align 4
  br label %108

108:                                              ; preds = %107
  br label %109

109:                                              ; preds = %108
  br label %110

110:                                              ; preds = %109
  store i32 1, ptr %20, align 4
  %111 = load ptr, ptr %7, align 8
  %112 = load ptr, ptr %11, align 8
  %113 = call i64 @relptr_store_eval(ptr noundef %111, ptr noundef %112)
  %114 = load ptr, ptr %4, align 8
  %115 = getelementptr inbounds nuw %struct.FreePageManager, ptr %114, i32 0, i32 9
  %116 = load i64, ptr %8, align 8
  %117 = getelementptr inbounds nuw [129 x %union.RelptrFreePageSpanLeader], ptr %115, i64 0, i64 %116
  store i64 %113, ptr %117, align 8
  call void @llvm.lifetime.end.p0(i64 8, ptr %11) #6
  call void @llvm.lifetime.end.p0(i64 8, ptr %9) #6
  call void @llvm.lifetime.end.p0(i64 8, ptr %8) #6
  call void @llvm.lifetime.end.p0(i64 8, ptr %7) #6
  ret void
}