; Function Attrs: mustprogress nofree norecurse nosync nounwind willreturn memory(argmem: readwrite) uwtable
define internal fastcc void @FreePagePushSpanLeader(ptr noundef %0, i64 noundef %1, i64 noundef %2) unnamed_addr #5 {
  %4 = load i64, ptr %0, align 8
  %5 = sub i64 1, %4
  %6 = getelementptr inbounds i8, ptr %0, i64 %5
  %7 = tail call i64 @llvm.umin.i64(i64 %2, i64 129)
  %8 = add nsw i64 %7, -1
  %9 = getelementptr inbounds nuw i8, ptr %0, i64 64
  %10 = getelementptr inbounds nuw [129 x %union.RelptrFreePageSpanLeader], ptr %9, i64 0, i64 %8
  %11 = load i64, ptr %10, align 8
  %12 = icmp eq i64 %11, 0
  %13 = getelementptr inbounds nuw i8, ptr %6, i64 %11
  %14 = getelementptr inbounds i8, ptr %13, i64 -1
  %15 = shl i64 %1, 12
  %16 = getelementptr inbounds nuw i8, ptr %6, i64 %15
  store i32 -364896016, ptr %16, align 8
  %17 = getelementptr inbounds nuw i8, ptr %16, i64 8
  store i64 %2, ptr %17, align 8
  %18 = ptrtoint ptr %14 to i64
  %19 = select i1 %12, i64 0, i64 %18
  %20 = ptrtoint ptr %6 to i64
  %reass.sub = sub i64 %19, %20
  %21 = add i64 %reass.sub, 1
  %.0.i = select i1 %12, i64 0, i64 %21
  %22 = getelementptr inbounds nuw i8, ptr %16, i64 24
  store i64 %.0.i, ptr %22, align 8
  %23 = getelementptr inbounds nuw i8, ptr %16, i64 16
  store i64 0, ptr %23, align 8
  %.pre = or disjoint i64 %15, 1
  br i1 %12, label %._crit_edge, label %24

24:                                               ; preds = %3
  %25 = getelementptr inbounds nuw i8, ptr %13, i64 15
  store i64 %.pre, ptr %25, align 8
  br label %._crit_edge

._crit_edge:                                      ; preds = %3, %24
  store i64 %.pre, ptr %10, align 8
  ret void
}